#include <math.h>
#include <stdio.h>
#include <stdlib.h>
#include <string.h>

int main()
{
	int n,i,j,k;
	int a[20000];
	scanf("%d",&n);
	for(i=0;i<n;i++)
	{scanf("%d",&a[i]);
	printf("\n");
	}
	printf("%d",a[0]);
	for(i=1;i<n;i++)
	{for(j=0,k=0;j<i;j++)
	{if (a[i]==a[j])
	k++;
	}
	if(k==0)
	printf(" %d",a[i]);
	}
	printf("\n");
	return 0;
}